; ModuleID = '19/538.c'
source_filename = "19/538.c"
target datalayout = "e-m:e-p270:32:32-p271:32:32-p272:64:64-i64:64-f80:128-n8:16:32:64-S128"
target triple = "x86_64-pc-linux-gnu"

@.str = private unnamed_addr constant [4 x i8] c"%s \00", align 1
@.str.1 = private unnamed_addr constant [4 x i8] c"%s\0A\00", align 1

; Function Attrs: noinline nounwind uwtable
define dso_local void @main() #0 {
  %1 = alloca [100 x i8], align 16
  %2 = alloca [100 x i8], align 16
  %3 = alloca [100 x i8], align 16
  %4 = alloca i32, align 4
  %5 = alloca i32, align 4
  %6 = alloca i32, align 4
  %7 = alloca i32, align 4
  %8 = alloca i32, align 4
  %9 = alloca [100 x [100 x i8]], align 16
  store i32 0, i32* %4, align 4
  store i32 0, i32* %5, align 4
  store i32 0, i32* %6, align 4
  store i32 0, i32* %7, align 4
  store i32 0, i32* %8, align 4
  %10 = getelementptr inbounds [100 x i8], [100 x i8]* %1, i64 0, i64 0
  %11 = call i32 (i8*, ...) bitcast (i32 (...)* @gets to i32 (i8*, ...)*)(i8* %10)
  %12 = getelementptr inbounds [100 x i8], [100 x i8]* %2, i64 0, i64 0
  %13 = call i32 (i8*, ...) bitcast (i32 (...)* @gets to i32 (i8*, ...)*)(i8* %12)
  %14 = getelementptr inbounds [100 x i8], [100 x i8]* %3, i64 0, i64 0
  %15 = call i32 (i8*, ...) bitcast (i32 (...)* @gets to i32 (i8*, ...)*)(i8* %14)
  %16 = getelementptr inbounds [100 x i8], [100 x i8]* %1, i64 0, i64 0
  %17 = call i64 @strlen(i8* %16) #5
  %18 = trunc i64 %17 to i32
  store i32 %18, i32* %8, align 4
  %19 = bitcast [100 x [100 x i8]]* %9 to i8*
  call void @llvm.memset.p0i8.i64(i8* align 16 %19, i8 0, i64 10000, i1 false)
  store i32 0, i32* %6, align 4
  br label %20

20:                                               ; preds = %56, %0
  %21 = load i32, i32* %6, align 4
  %22 = load i32, i32* %8, align 4
  %23 = icmp slt i32 %21, %22
  br i1 %23, label %24, label %59

24:                                               ; preds = %20
  %25 = load i32, i32* %6, align 4
  %26 = sext i32 %25 to i64
  %27 = getelementptr inbounds [100 x i8], [100 x i8]* %1, i64 0, i64 %26
  %28 = load i8, i8* %27, align 1
  %29 = sext i8 %28 to i32
  %30 = icmp ne i32 %29, 32
  br i1 %30, label %31, label %44

31:                                               ; preds = %24
  %32 = load i32, i32* %6, align 4
  %33 = sext i32 %32 to i64
  %34 = getelementptr inbounds [100 x i8], [100 x i8]* %1, i64 0, i64 %33
  %35 = load i8, i8* %34, align 1
  %36 = load i32, i32* %4, align 4
  %37 = sext i32 %36 to i64
  %38 = getelementptr inbounds [100 x [100 x i8]], [100 x [100 x i8]]* %9, i64 0, i64 %37
  %39 = load i32, i32* %5, align 4
  %40 = sext i32 %39 to i64
  %41 = getelementptr inbounds [100 x i8], [100 x i8]* %38, i64 0, i64 %40
  store i8 %35, i8* %41, align 1
  %42 = load i32, i32* %5, align 4
  %43 = add nsw i32 %42, 1
  store i32 %43, i32* %5, align 4
  br label %55

44:                                               ; preds = %24
  %45 = load i32, i32* %6, align 4
  %46 = sext i32 %45 to i64
  %47 = getelementptr inbounds [100 x i8], [100 x i8]* %1, i64 0, i64 %46
  %48 = load i8, i8* %47, align 1
  %49 = sext i8 %48 to i32
  %50 = icmp eq i32 %49, 32
  br i1 %50, label %51, label %54

51:                                               ; preds = %44
  %52 = load i32, i32* %4, align 4
  %53 = add nsw i32 %52, 1
  store i32 %53, i32* %4, align 4
  store i32 0, i32* %5, align 4
  br label %54

54:                                               ; preds = %51, %44
  br label %55

55:                                               ; preds = %54, %31
  br label %56

56:                                               ; preds = %55
  %57 = load i32, i32* %6, align 4
  %58 = add nsw i32 %57, 1
  store i32 %58, i32* %6, align 4
  br label %20

59:                                               ; preds = %20
  %60 = load i32, i32* %4, align 4
  %61 = add nsw i32 %60, 1
  store i32 %61, i32* %7, align 4
  store i32 0, i32* %4, align 4
  br label %62

62:                                               ; preds = %83, %59
  %63 = load i32, i32* %4, align 4
  %64 = load i32, i32* %7, align 4
  %65 = icmp slt i32 %63, %64
  br i1 %65, label %66, label %86

66:                                               ; preds = %62
  %67 = load i32, i32* %4, align 4
  %68 = sext i32 %67 to i64
  %69 = getelementptr inbounds [100 x [100 x i8]], [100 x [100 x i8]]* %9, i64 0, i64 %68
  %70 = getelementptr inbounds [100 x i8], [100 x i8]* %69, i64 0, i64 0
  %71 = getelementptr inbounds [100 x i8], [100 x i8]* %2, i64 0, i64 0
  %72 = call i32 @strcmp(i8* %70, i8* %71) #5
  %73 = icmp eq i32 %72, 0
  br i1 %73, label %74, label %81

74:                                               ; preds = %66
  %75 = load i32, i32* %4, align 4
  %76 = sext i32 %75 to i64
  %77 = getelementptr inbounds [100 x [100 x i8]], [100 x [100 x i8]]* %9, i64 0, i64 %76
  %78 = getelementptr inbounds [100 x i8], [100 x i8]* %77, i64 0, i64 0
  %79 = getelementptr inbounds [100 x i8], [100 x i8]* %3, i64 0, i64 0
  %80 = call i8* @strcpy(i8* %78, i8* %79) #6
  br label %82

81:                                               ; preds = %66
  br label %83

82:                                               ; preds = %74
  br label %83

83:                                               ; preds = %82, %81
  %84 = load i32, i32* %4, align 4
  %85 = add nsw i32 %84, 1
  store i32 %85, i32* %4, align 4
  br label %62

86:                                               ; preds = %62
  store i32 0, i32* %4, align 4
  br label %87

87:                                               ; preds = %98, %86
  %88 = load i32, i32* %4, align 4
  %89 = load i32, i32* %7, align 4
  %90 = sub nsw i32 %89, 1
  %91 = icmp slt i32 %88, %90
  br i1 %91, label %92, label %101

92:                                               ; preds = %87
  %93 = load i32, i32* %4, align 4
  %94 = sext i32 %93 to i64
  %95 = getelementptr inbounds [100 x [100 x i8]], [100 x [100 x i8]]* %9, i64 0, i64 %94
  %96 = getelementptr inbounds [100 x i8], [100 x i8]* %95, i64 0, i64 0
  %97 = call i32 (i8*, ...) @printf(i8* getelementptr inbounds ([4 x i8], [4 x i8]* @.str, i64 0, i64 0), i8* %96)
  br label %98

98:                                               ; preds = %92
  %99 = load i32, i32* %4, align 4
  %100 = add nsw i32 %99, 1
  store i32 %100, i32* %4, align 4
  br label %87

101:                                              ; preds = %87
  %102 = load i32, i32* %7, align 4
  %103 = sub nsw i32 %102, 1
  %104 = sext i32 %103 to i64
  %105 = getelementptr inbounds [100 x [100 x i8]], [100 x [100 x i8]]* %9, i64 0, i64 %104
  %106 = getelementptr inbounds [100 x i8], [100 x i8]* %105, i64 0, i64 0
  %107 = call i32 (i8*, ...) @printf(i8* getelementptr inbounds ([4 x i8], [4 x i8]* @.str.1, i64 0, i64 0), i8* %106)
  ret void
}

declare dso_local i32 @gets(...) #1

; Function Attrs: nounwind readonly
declare dso_local i64 @strlen(i8*) #2

; Function Attrs: argmemonly nounwind willreturn
declare void @llvm.memset.p0i8.i64(i8* nocapture writeonly, i8, i64, i1 immarg) #3

; Function Attrs: nounwind readonly
declare dso_local i32 @strcmp(i8*, i8*) #2

; Function Attrs: nounwind
declare dso_local i8* @strcpy(i8*, i8*) #4

declare dso_local i32 @printf(i8*, ...) #1


!llvm.module.flags = !{!0}
!llvm.ident = !{!1}

!0 = !{i32 1, !"wchar_size", i32 4}
!1 = !{!"clang version 10.0.0-4ubuntu1 "}
